target datalayout = "e-m:e-p270:32:32-p271:32:32-p272:64:64-i64:64-i128:128-f80:128-n8:16:32:64-S128"
target triple = "x86_64-pc-linux-gnu"

%"class.Imf_3_4::CompositeDeepScanLine" = type { ptr, ptr }

@_ZTVN7Imf_3_421CompositeDeepScanLineE = unnamed_addr constant { [4 x ptr] } { [4 x ptr] [ptr null, ptr @_ZTIN7Imf_3_421CompositeDeepScanLineE, ptr @_ZN7Imf_3_421CompositeDeepScanLineD1Ev, ptr @_ZN7Imf_3_421CompositeDeepScanLineD0Ev] }, align 8

; Function Attrs: mustprogress nounwind uwtable
define void @_ZN7Imf_3_421CompositeDeepScanLineD2Ev(ptr noundef nonnull align 8 dereferenceable(16) %0) unnamed_addr #4 align 2 {
  %2 = alloca ptr, align 8
  store ptr %0, ptr %2, align 8, !tbaa !67
  %3 = load ptr, ptr %2, align 8
  store ptr getelementptr inbounds inrange(-16, 16) ({ [4 x ptr] }, ptr @_ZTVN7Imf_3_421CompositeDeepScanLineE, i32 0, i32 0, i32 2), ptr %3, align 8, !tbaa !69
  %4 = getelementptr inbounds nuw %"class.Imf_3_4::CompositeDeepScanLine", ptr %3, i32 0, i32 1
  %5 = load ptr, ptr %4, align 8, !tbaa !71
  %6 = icmp eq ptr %5, null
  br i1 %6, label %8, label %7

7:                                                ; preds = %1
  call void @_ZN7Imf_3_421CompositeDeepScanLine4DataD2Ev(ptr noundef nonnull align 8 dereferenceable(224) %5) #3
  call void @_ZdlPvm(ptr noundef %5, i64 noundef 224) #19
  br label %8

8:                                                ; preds = %7, %1
  ret void
}