; Function Attrs: mustprogress nounwind uwtable
define void @_ZN7Imf_3_421CompositeDeepScanLineD2Ev(ptr noundef nonnull align 8 captures(none) dereferenceable(16) initializes((0, 8)) %0) unnamed_addr #7 align 2 {
  store ptr getelementptr inbounds nuw inrange(-16, 16) (i8, ptr @_ZTVN7Imf_3_421CompositeDeepScanLineE, i64 16), ptr %0, align 8, !tbaa !57
  %2 = getelementptr inbounds nuw i8, ptr %0, i64 8
  %3 = load ptr, ptr %2, align 8, !tbaa !59
  %4 = icmp eq ptr %3, null
  br i1 %4, label %6, label %5

5:                                                ; preds = %1
  tail call void @_ZN7Imf_3_421CompositeDeepScanLine4DataD2Ev(ptr noundef nonnull align 8 dereferenceable(224) %3) #29
  tail call void @_ZdlPvm(ptr noundef nonnull %3, i64 noundef 224) #30
  br label %6

6:                                                ; preds = %5, %1
  ret void
}